target datalayout = "e-m:e-p270:32:32-p271:32:32-p272:64:64-i64:64-i128:128-f80:128-n8:16:32:64-S128"
target triple = "x86_64-pc-linux-gnu"

; Function Attrs: nounwind uwtable
define internal void @add_pkcs_padding(ptr noundef %0, i64 noundef %1, i64 noundef %2) #0 {
  %4 = alloca ptr, align 8
  %5 = alloca i64, align 8
  %6 = alloca i64, align 8
  %7 = alloca i64, align 8
  %8 = alloca i8, align 1
  store ptr %0, ptr %4, align 8, !tbaa !18
  store i64 %1, ptr %5, align 8, !tbaa !43
  store i64 %2, ptr %6, align 8, !tbaa !43
  call void @llvm.lifetime.start.p0(i64 8, ptr %7) #7
  %9 = load i64, ptr %5, align 8, !tbaa !43
  %10 = load i64, ptr %6, align 8, !tbaa !43
  %11 = sub i64 %9, %10
  store i64 %11, ptr %7, align 8, !tbaa !43
  call void @llvm.lifetime.start.p0(i64 1, ptr %8) #7
  store i8 0, ptr %8, align 1, !tbaa !57
  br label %12

12:                                               ; preds = %26, %3
  %13 = load i8, ptr %8, align 1, !tbaa !57
  %14 = zext i8 %13 to i64
  %15 = load i64, ptr %7, align 8, !tbaa !43
  %16 = icmp ult i64 %14, %15
  br i1 %16, label %17, label %29

17:                                               ; preds = %12
  %18 = load i64, ptr %7, align 8, !tbaa !43
  %19 = trunc i64 %18 to i8
  %20 = load ptr, ptr %4, align 8, !tbaa !18
  %21 = load i64, ptr %6, align 8, !tbaa !43
  %22 = load i8, ptr %8, align 1, !tbaa !57
  %23 = zext i8 %22 to i64
  %24 = add i64 %21, %23
  %25 = getelementptr inbounds nuw i8, ptr %20, i64 %24
  store i8 %19, ptr %25, align 1, !tbaa !57
  br label %26

26:                                               ; preds = %17
  %27 = load i8, ptr %8, align 1, !tbaa !57
  %28 = add i8 %27, 1
  store i8 %28, ptr %8, align 1, !tbaa !57
  br label %12, !llvm.loop !58

29:                                               ; preds = %12
  call void @llvm.lifetime.end.p0(i64 1, ptr %8) #7
  call void @llvm.lifetime.end.p0(i64 8, ptr %7) #7
  ret void
}