; Function Attrs: nofree norecurse nosync nounwind memory(argmem: write) uwtable
define internal void @add_pkcs_padding(ptr noundef writeonly captures(none) %0, i64 noundef %1, i64 noundef %2) #13 {
  %4 = sub i64 %1, %2
  %.not = icmp eq i64 %1, %2
  br i1 %.not, label %._crit_edge, label %.lr.ph

.lr.ph:                                           ; preds = %3
  %5 = trunc i64 %4 to i8
  %6 = getelementptr i8, ptr %0, i64 %2
  br label %7

7:                                                ; preds = %.lr.ph, %7
  %8 = phi i64 [ 0, %.lr.ph ], [ %11, %7 ]
  %.010 = phi i8 [ 0, %.lr.ph ], [ %10, %7 ]
  %9 = getelementptr i8, ptr %6, i64 %8
  store i8 %5, ptr %9, align 1, !tbaa !47
  %10 = add i8 %.010, 1
  %11 = zext i8 %10 to i64
  %12 = icmp ugt i64 %4, %11
  br i1 %12, label %7, label %._crit_edge, !llvm.loop !48

._crit_edge:                                      ; preds = %7, %3
  ret void
}